Archive member included to satisfy reference by file (symbol)

../Arch/bin/libarch.a(init_64.o)
                              ../Arch/CPU/build/init_32.o (__kinit_x86_64)
../Arch/bin/libarch.a(kickstart.o)
                              ../Arch/bin/libarch.a(init_64.o) (kickstart)
../Arch/bin/libarch.a(panic.o)
                              ../Arch/bin/libarch.a(kickstart.o) (kernel_panic)
../Arch/bin/libarch.a(uart.o)
                              ../Arch/bin/libarch.a(kickstart.o) (uart_init)
../Arch/bin/libarch.a(vga_console.o)
                              ../Arch/bin/libarch.a(kickstart.o) (vga_console_init)
../Arch/bin/libarch.a(cpu.o)  ../Arch/bin/libarch.a(kickstart.o) (cpu_init)
../Arch/bin/libarch.a(cpu_sync.o)
                              ../Arch/bin/libarch.a(uart.o) (cpu_lock_spinlock)
../Arch/bin/libarch.a(int_handlers.o)
                              ../Arch/bin/libarch.a(cpu.o) (interrupt_handler_8)
../Core/bin/libcore.a(interrupts.o)
                              ../Arch/bin/libarch.a(int_handlers.o) (kernel_interrupt_handler)
../Core/bin/libcore.a(scheduler.o)
                              ../Arch/bin/libarch.a(int_handlers.o) (current_thread)
../IO/bin/libio.a(console.o)  ../Arch/bin/libarch.a(kickstart.o) (console_set_selected_driver)
../IO/bin/libio.a(kernel_output.o)
                              ../Arch/bin/libarch.a(panic.o) (kernel_printf)
../Libs/bin/liblibc.a(itoa.o)
                              ../IO/bin/libio.a(kernel_output.o) (itoa)
../Libs/bin/liblibc.a(memmove.o)
                              ../Arch/bin/libarch.a(vga_console.o) (memmove)
../Libs/bin/liblibc.a(memset.o)
                              ../Arch/bin/libarch.a(vga_console.o) (memset)
../Libs/bin/liblibc.a(strlen.o)
                              ../Arch/bin/libarch.a(panic.o) (strlen)
../Libs/bin/liblibc.a(uitoa.o)
                              ../IO/bin/libio.a(kernel_output.o) (uitoa)

Merging program properties

Removed property 0xc0000002 to merge ../Arch/bin/libarch.a(kickstart.o) (0x3) and ../Arch/CPU/build/init_32.o (not found)
Removed property 0xc0000002 to merge ../Arch/bin/libarch.a(kickstart.o) (not found) and ../Arch/bin/libarch.a(panic.o) (0x3)
Removed property 0xc0000002 to merge ../Arch/bin/libarch.a(kickstart.o) (not found) and ../Arch/bin/libarch.a(uart.o) (0x3)
Removed property 0xc0000002 to merge ../Arch/bin/libarch.a(kickstart.o) (not found) and ../Arch/bin/libarch.a(vga_console.o) (0x3)
Removed property 0xc0000002 to merge ../Arch/bin/libarch.a(kickstart.o) (not found) and ../Arch/bin/libarch.a(cpu.o) (0x3)
Removed property 0xc0000002 to merge ../Arch/bin/libarch.a(kickstart.o) (not found) and ../Core/bin/libcore.a(interrupts.o) (0x3)
Removed property 0xc0000002 to merge ../Arch/bin/libarch.a(kickstart.o) (not found) and ../Core/bin/libcore.a(scheduler.o) (0x3)
Removed property 0xc0000002 to merge ../Arch/bin/libarch.a(kickstart.o) (not found) and ../IO/bin/libio.a(console.o) (0x3)
Removed property 0xc0000002 to merge ../Arch/bin/libarch.a(kickstart.o) (not found) and ../IO/bin/libio.a(kernel_output.o) (0x3)
Removed property 0xc0000002 to merge ../Arch/bin/libarch.a(kickstart.o) (not found) and ../Libs/bin/liblibc.a(itoa.o) (0x3)
Removed property 0xc0000002 to merge ../Arch/bin/libarch.a(kickstart.o) (not found) and ../Libs/bin/liblibc.a(memmove.o) (0x3)
Removed property 0xc0000002 to merge ../Arch/bin/libarch.a(kickstart.o) (not found) and ../Libs/bin/liblibc.a(memset.o) (0x3)
Removed property 0xc0000002 to merge ../Arch/bin/libarch.a(kickstart.o) (not found) and ../Libs/bin/liblibc.a(strlen.o) (0x3)
Removed property 0xc0000002 to merge ../Arch/bin/libarch.a(kickstart.o) (not found) and ../Libs/bin/liblibc.a(uitoa.o) (0x3)

Discarded input sections

 .group         0x0000000000000000        0xc ../Arch/bin/libarch.a(kickstart.o)
 .group         0x0000000000000000        0xc ../Arch/bin/libarch.a(kickstart.o)
 .group         0x0000000000000000        0xc ../Arch/bin/libarch.a(kickstart.o)
 .group         0x0000000000000000        0xc ../Arch/bin/libarch.a(kickstart.o)
 .group         0x0000000000000000        0xc ../Arch/bin/libarch.a(kickstart.o)
 .group         0x0000000000000000        0xc ../Arch/bin/libarch.a(kickstart.o)
 .group         0x0000000000000000        0xc ../Arch/bin/libarch.a(kickstart.o)
 .group         0x0000000000000000        0xc ../Arch/bin/libarch.a(kickstart.o)
 .note.gnu.property
                0x0000000000000000       0x20 ../Arch/bin/libarch.a(kickstart.o)
 .group         0x0000000000000000        0xc ../Arch/bin/libarch.a(panic.o)
 .group         0x0000000000000000        0xc ../Arch/bin/libarch.a(panic.o)
 .group         0x0000000000000000        0xc ../Arch/bin/libarch.a(panic.o)
 .group         0x0000000000000000        0xc ../Arch/bin/libarch.a(panic.o)
 .group         0x0000000000000000        0xc ../Arch/bin/libarch.a(panic.o)
 .group         0x0000000000000000        0xc ../Arch/bin/libarch.a(panic.o)
 .group         0x0000000000000000        0xc ../Arch/bin/libarch.a(panic.o)
 .group         0x0000000000000000        0xc ../Arch/bin/libarch.a(panic.o)
 .group         0x0000000000000000        0xc ../Arch/bin/libarch.a(panic.o)
 .group         0x0000000000000000        0xc ../Arch/bin/libarch.a(panic.o)
 .debug_macro   0x0000000000000000      0x8c2 ../Arch/bin/libarch.a(panic.o)
 .debug_macro   0x0000000000000000       0x5e ../Arch/bin/libarch.a(panic.o)
 .debug_macro   0x0000000000000000      0x11e ../Arch/bin/libarch.a(panic.o)
 .debug_macro   0x0000000000000000       0x1c ../Arch/bin/libarch.a(panic.o)
 .debug_macro   0x0000000000000000       0x28 ../Arch/bin/libarch.a(panic.o)
 .debug_macro   0x0000000000000000       0x16 ../Arch/bin/libarch.a(panic.o)
 .debug_macro   0x0000000000000000       0x10 ../Arch/bin/libarch.a(panic.o)
 .note.gnu.property
                0x0000000000000000       0x20 ../Arch/bin/libarch.a(panic.o)
 .group         0x0000000000000000        0xc ../Arch/bin/libarch.a(uart.o)
 .group         0x0000000000000000        0xc ../Arch/bin/libarch.a(uart.o)
 .group         0x0000000000000000        0xc ../Arch/bin/libarch.a(uart.o)
 .group         0x0000000000000000        0xc ../Arch/bin/libarch.a(uart.o)
 .group         0x0000000000000000        0xc ../Arch/bin/libarch.a(uart.o)
 .group         0x0000000000000000        0xc ../Arch/bin/libarch.a(uart.o)
 .group         0x0000000000000000        0xc ../Arch/bin/libarch.a(uart.o)
 .group         0x0000000000000000        0xc ../Arch/bin/libarch.a(uart.o)
 .debug_macro   0x0000000000000000      0x8c2 ../Arch/bin/libarch.a(uart.o)
 .debug_macro   0x0000000000000000       0x5e ../Arch/bin/libarch.a(uart.o)
 .debug_macro   0x0000000000000000      0x11e ../Arch/bin/libarch.a(uart.o)
 .debug_macro   0x0000000000000000       0x1c ../Arch/bin/libarch.a(uart.o)
 .debug_macro   0x0000000000000000       0x16 ../Arch/bin/libarch.a(uart.o)
 .debug_macro   0x0000000000000000       0x28 ../Arch/bin/libarch.a(uart.o)
 .debug_macro   0x0000000000000000       0x10 ../Arch/bin/libarch.a(uart.o)
 .note.gnu.property
                0x0000000000000000       0x20 ../Arch/bin/libarch.a(uart.o)
 .group         0x0000000000000000        0xc ../Arch/bin/libarch.a(vga_console.o)
 .group         0x0000000000000000        0xc ../Arch/bin/libarch.a(vga_console.o)
 .group         0x0000000000000000        0xc ../Arch/bin/libarch.a(vga_console.o)
 .group         0x0000000000000000        0xc ../Arch/bin/libarch.a(vga_console.o)
 .group         0x0000000000000000        0xc ../Arch/bin/libarch.a(vga_console.o)
 .group         0x0000000000000000        0xc ../Arch/bin/libarch.a(vga_console.o)
 .group         0x0000000000000000        0xc ../Arch/bin/libarch.a(vga_console.o)
 .debug_macro   0x0000000000000000      0x8c2 ../Arch/bin/libarch.a(vga_console.o)
 .debug_macro   0x0000000000000000       0x5e ../Arch/bin/libarch.a(vga_console.o)
 .debug_macro   0x0000000000000000      0x11e ../Arch/bin/libarch.a(vga_console.o)
 .debug_macro   0x0000000000000000       0x1c ../Arch/bin/libarch.a(vga_console.o)
 .debug_macro   0x0000000000000000       0x28 ../Arch/bin/libarch.a(vga_console.o)
 .debug_macro   0x0000000000000000       0xca ../Arch/bin/libarch.a(vga_console.o)
 .note.gnu.property
                0x0000000000000000       0x20 ../Arch/bin/libarch.a(vga_console.o)
 .group         0x0000000000000000        0xc ../Arch/bin/libarch.a(cpu.o)
 .group         0x0000000000000000        0xc ../Arch/bin/libarch.a(cpu.o)
 .group         0x0000000000000000        0xc ../Arch/bin/libarch.a(cpu.o)
 .group         0x0000000000000000        0xc ../Arch/bin/libarch.a(cpu.o)
 .group         0x0000000000000000        0xc ../Arch/bin/libarch.a(cpu.o)
 .group         0x0000000000000000        0xc ../Arch/bin/libarch.a(cpu.o)
 .group         0x0000000000000000        0xc ../Arch/bin/libarch.a(cpu.o)
 .debug_macro   0x0000000000000000      0x8c2 ../Arch/bin/libarch.a(cpu.o)
 .debug_macro   0x0000000000000000       0x5e ../Arch/bin/libarch.a(cpu.o)
 .debug_macro   0x0000000000000000      0x11e ../Arch/bin/libarch.a(cpu.o)
 .debug_macro   0x0000000000000000       0x1c ../Arch/bin/libarch.a(cpu.o)
 .debug_macro   0x0000000000000000       0x28 ../Arch/bin/libarch.a(cpu.o)
 .debug_macro   0x0000000000000000       0xa6 ../Arch/bin/libarch.a(cpu.o)
 .debug_macro   0x0000000000000000       0x10 ../Arch/bin/libarch.a(cpu.o)
 .note.gnu.property
                0x0000000000000000       0x20 ../Arch/bin/libarch.a(cpu.o)
 .group         0x0000000000000000        0xc ../Core/bin/libcore.a(interrupts.o)
 .group         0x0000000000000000        0xc ../Core/bin/libcore.a(interrupts.o)
 .group         0x0000000000000000        0xc ../Core/bin/libcore.a(interrupts.o)
 .group         0x0000000000000000        0xc ../Core/bin/libcore.a(interrupts.o)
 .group         0x0000000000000000        0xc ../Core/bin/libcore.a(interrupts.o)
 .group         0x0000000000000000        0xc ../Core/bin/libcore.a(interrupts.o)
 .group         0x0000000000000000        0xc ../Core/bin/libcore.a(interrupts.o)
 .group         0x0000000000000000        0xc ../Core/bin/libcore.a(interrupts.o)
 .group         0x0000000000000000        0xc ../Core/bin/libcore.a(interrupts.o)
 .debug_macro   0x0000000000000000      0x8c2 ../Core/bin/libcore.a(interrupts.o)
 .debug_macro   0x0000000000000000       0x5e ../Core/bin/libcore.a(interrupts.o)
 .debug_macro   0x0000000000000000      0x11e ../Core/bin/libcore.a(interrupts.o)
 .debug_macro   0x0000000000000000       0x1c ../Core/bin/libcore.a(interrupts.o)
 .debug_macro   0x0000000000000000       0x10 ../Core/bin/libcore.a(interrupts.o)
 .debug_macro   0x0000000000000000       0xa6 ../Core/bin/libcore.a(interrupts.o)
 .debug_macro   0x0000000000000000       0x10 ../Core/bin/libcore.a(interrupts.o)
 .debug_macro   0x0000000000000000       0x28 ../Core/bin/libcore.a(interrupts.o)
 .debug_macro   0x0000000000000000       0x28 ../Core/bin/libcore.a(interrupts.o)
 .note.gnu.property
                0x0000000000000000       0x20 ../Core/bin/libcore.a(interrupts.o)
 .group         0x0000000000000000        0xc ../Core/bin/libcore.a(scheduler.o)
 .group         0x0000000000000000        0xc ../Core/bin/libcore.a(scheduler.o)
 .group         0x0000000000000000        0xc ../Core/bin/libcore.a(scheduler.o)
 .group         0x0000000000000000        0xc ../Core/bin/libcore.a(scheduler.o)
 .group         0x0000000000000000        0xc ../Core/bin/libcore.a(scheduler.o)
 .debug_macro   0x0000000000000000      0x8c2 ../Core/bin/libcore.a(scheduler.o)
 .debug_macro   0x0000000000000000       0x5e ../Core/bin/libcore.a(scheduler.o)
 .debug_macro   0x0000000000000000      0x11e ../Core/bin/libcore.a(scheduler.o)
 .debug_macro   0x0000000000000000       0x1c ../Core/bin/libcore.a(scheduler.o)
 .debug_macro   0x0000000000000000       0x10 ../Core/bin/libcore.a(scheduler.o)
 .note.gnu.property
                0x0000000000000000       0x20 ../Core/bin/libcore.a(scheduler.o)
 .group         0x0000000000000000        0xc ../IO/bin/libio.a(console.o)
 .group         0x0000000000000000        0xc ../IO/bin/libio.a(console.o)
 .group         0x0000000000000000        0xc ../IO/bin/libio.a(console.o)
 .group         0x0000000000000000        0xc ../IO/bin/libio.a(console.o)
 .debug_macro   0x0000000000000000      0x8c2 ../IO/bin/libio.a(console.o)
 .debug_macro   0x0000000000000000       0x5e ../IO/bin/libio.a(console.o)
 .debug_macro   0x0000000000000000      0x11e ../IO/bin/libio.a(console.o)
 .note.gnu.property
                0x0000000000000000       0x20 ../IO/bin/libio.a(console.o)
 .group         0x0000000000000000        0xc ../IO/bin/libio.a(kernel_output.o)
 .group         0x0000000000000000        0xc ../IO/bin/libio.a(kernel_output.o)
 .group         0x0000000000000000        0xc ../IO/bin/libio.a(kernel_output.o)
 .group         0x0000000000000000        0xc ../IO/bin/libio.a(kernel_output.o)
 .group         0x0000000000000000        0xc ../IO/bin/libio.a(kernel_output.o)
 .debug_macro   0x0000000000000000      0x8c2 ../IO/bin/libio.a(kernel_output.o)
 .debug_macro   0x0000000000000000       0x5e ../IO/bin/libio.a(kernel_output.o)
 .debug_macro   0x0000000000000000      0x11e ../IO/bin/libio.a(kernel_output.o)
 .debug_macro   0x0000000000000000       0x1c ../IO/bin/libio.a(kernel_output.o)
 .debug_macro   0x0000000000000000       0x28 ../IO/bin/libio.a(kernel_output.o)
 .note.gnu.property
                0x0000000000000000       0x20 ../IO/bin/libio.a(kernel_output.o)
 .group         0x0000000000000000        0xc ../Libs/bin/liblibc.a(itoa.o)
 .group         0x0000000000000000        0xc ../Libs/bin/liblibc.a(itoa.o)
 .group         0x0000000000000000        0xc ../Libs/bin/liblibc.a(itoa.o)
 .group         0x0000000000000000        0xc ../Libs/bin/liblibc.a(itoa.o)
 .debug_macro   0x0000000000000000      0x8c2 ../Libs/bin/liblibc.a(itoa.o)
 .debug_macro   0x0000000000000000       0x5e ../Libs/bin/liblibc.a(itoa.o)
 .debug_macro   0x0000000000000000      0x11e ../Libs/bin/liblibc.a(itoa.o)
 .debug_macro   0x0000000000000000       0x22 ../Libs/bin/liblibc.a(itoa.o)
 .note.gnu.property
                0x0000000000000000       0x20 ../Libs/bin/liblibc.a(itoa.o)
 .group         0x0000000000000000        0xc ../Libs/bin/liblibc.a(memmove.o)
 .group         0x0000000000000000        0xc ../Libs/bin/liblibc.a(memmove.o)
 .group         0x0000000000000000        0xc ../Libs/bin/liblibc.a(memmove.o)
 .group         0x0000000000000000        0xc ../Libs/bin/liblibc.a(memmove.o)
 .debug_macro   0x0000000000000000      0x8c2 ../Libs/bin/liblibc.a(memmove.o)
 .debug_macro   0x0000000000000000       0x5e ../Libs/bin/liblibc.a(memmove.o)
 .debug_macro   0x0000000000000000      0x11e ../Libs/bin/liblibc.a(memmove.o)
 .debug_macro   0x0000000000000000       0x1c ../Libs/bin/liblibc.a(memmove.o)
 .note.gnu.property
                0x0000000000000000       0x20 ../Libs/bin/liblibc.a(memmove.o)
 .group         0x0000000000000000        0xc ../Libs/bin/liblibc.a(memset.o)
 .group         0x0000000000000000        0xc ../Libs/bin/liblibc.a(memset.o)
 .group         0x0000000000000000        0xc ../Libs/bin/liblibc.a(memset.o)
 .group         0x0000000000000000        0xc ../Libs/bin/liblibc.a(memset.o)
 .debug_macro   0x0000000000000000      0x8c2 ../Libs/bin/liblibc.a(memset.o)
 .debug_macro   0x0000000000000000       0x5e ../Libs/bin/liblibc.a(memset.o)
 .debug_macro   0x0000000000000000      0x11e ../Libs/bin/liblibc.a(memset.o)
 .debug_macro   0x0000000000000000       0x1c ../Libs/bin/liblibc.a(memset.o)
 .note.gnu.property
                0x0000000000000000       0x20 ../Libs/bin/liblibc.a(memset.o)
 .group         0x0000000000000000        0xc ../Libs/bin/liblibc.a(strlen.o)
 .group         0x0000000000000000        0xc ../Libs/bin/liblibc.a(strlen.o)
 .group         0x0000000000000000        0xc ../Libs/bin/liblibc.a(strlen.o)
 .group         0x0000000000000000        0xc ../Libs/bin/liblibc.a(strlen.o)
 .debug_macro   0x0000000000000000      0x8c2 ../Libs/bin/liblibc.a(strlen.o)
 .debug_macro   0x0000000000000000       0x5e ../Libs/bin/liblibc.a(strlen.o)
 .debug_macro   0x0000000000000000      0x11e ../Libs/bin/liblibc.a(strlen.o)
 .debug_macro   0x0000000000000000       0x1c ../Libs/bin/liblibc.a(strlen.o)
 .note.gnu.property
                0x0000000000000000       0x20 ../Libs/bin/liblibc.a(strlen.o)
 .group         0x0000000000000000        0xc ../Libs/bin/liblibc.a(uitoa.o)
 .group         0x0000000000000000        0xc ../Libs/bin/liblibc.a(uitoa.o)
 .group         0x0000000000000000        0xc ../Libs/bin/liblibc.a(uitoa.o)
 .group         0x0000000000000000        0xc ../Libs/bin/liblibc.a(uitoa.o)
 .debug_macro   0x0000000000000000      0x8c2 ../Libs/bin/liblibc.a(uitoa.o)
 .debug_macro   0x0000000000000000       0x5e ../Libs/bin/liblibc.a(uitoa.o)
 .debug_macro   0x0000000000000000      0x11e ../Libs/bin/liblibc.a(uitoa.o)
 .debug_macro   0x0000000000000000       0x22 ../Libs/bin/liblibc.a(uitoa.o)
 .note.gnu.property
                0x0000000000000000       0x20 ../Libs/bin/liblibc.a(uitoa.o)

Memory Configuration

Name             Origin             Length             Attributes
KERNEL_BIOS_CALL_MEM 0x0000000000001000 0x0000000000001000 xrw
LOW_STARTUP_CODE 0x0000000000100000 0x0000000000008000 xr
KERNEL_CODE      0xfffffff800110000 0x0000000000040000 xr
KERNEL_RO_DATA   0xfffffff800150000 0x0000000000010000 r
KERNEL_RW_DATA   0xfffffff800160000 0x0000000000010000 rw
KERNEL_SYM_TAB   0xfffffff800170000 0x0000000000010000 rw
KERNEL_TRACE_BUFFER 0xfffffff800180000 0x0000000000010000 rw
KERNEL_MULTIBOOT_MEM 0xfffffff800190000 0x0000000000010000 rw
KERNEL_STACKS    0xfffffff800200000 0x0000000000010000 rw
KERNEL_HEAP      0xfffffff800210000 0x0000000000a00000 rw
*default*        0x0000000000000000 0xffffffffffffffff

Linker script and memory map

                0xfffffff800000000                KERNEL_MEM_OFFSET = 0xfffffff800000000
                0x0000000000100000                . = ORIGIN (LOW_STARTUP_CODE)

.low_startup    0x0000000000100000     0x7370
                0x0000000000100000                _START_LOW_STARTUP_ADDR = .
 *(.multiboot)
 .multiboot     0x0000000000100000       0x30 ../Arch/CPU/build/init_32.o
                0x0000000000100030                . = ALIGN (0x10)
 ../Arch/CPU/build/init_32.o()
 .text          0x0000000000100030      0x1c6 ../Arch/CPU/build/init_32.o
                0x0000000000100030                __kinit
                0x0000000800100030                __kinit_low
 *fill*         0x00000000001001f6      0xe0a 
 .data          0x0000000000101000     0x6000 ../Arch/CPU/build/init_32.o
 .bss           0x0000000000107000      0x200 ../Arch/CPU/build/init_32.o
 .debug_aranges
                0x0000000000107200       0x30 ../Arch/CPU/build/init_32.o
 .debug_pubnames
                0x0000000000107230        0x0 ../Arch/CPU/build/init_32.o
 .debug_info    0x0000000000107230       0x4f ../Arch/CPU/build/init_32.o
 .debug_abbrev  0x000000000010727f       0x1b ../Arch/CPU/build/init_32.o
 .debug_line    0x000000000010729a       0xd5 ../Arch/CPU/build/init_32.o
 *fill*         0x000000000010736f        0x1 
 .debug_frame   0x0000000000107370        0x0 ../Arch/CPU/build/init_32.o
 .debug_loc     0x0000000000107370        0x0 ../Arch/CPU/build/init_32.o
 .rela.got      0x0000000000107370        0x0 ../Arch/CPU/build/init_32.o
 .got           0x0000000000107370        0x0 ../Arch/CPU/build/init_32.o
 .got.plt       0x0000000000107370        0x0 ../Arch/CPU/build/init_32.o
 .iplt          0x0000000000107370        0x0 ../Arch/CPU/build/init_32.o
 .rela.iplt     0x0000000000107370        0x0 ../Arch/CPU/build/init_32.o
 .igot.plt      0x0000000000107370        0x0 ../Arch/CPU/build/init_32.o
 .rela.text     0x0000000000107370        0x0 ../Arch/CPU/build/init_32.o
                0x0000000000107370                _END_LOW_STARTUP_ADDR = .
                0xfffffff800110000                . = ORIGIN (KERNEL_CODE)

.text           0xfffffff800110000     0x6046 load address 0x0000000000110000
                0xfffffff800110000                _START_TEXT_ADDR = .
 *(.text)
 .text          0xfffffff800110000       0xa8 ../Arch/bin/libarch.a(init_64.o)
                0xfffffff800110000                __kinit_x86_64
 .text          0xfffffff8001100a8       0xe3 ../Arch/bin/libarch.a(kickstart.o)
                0xfffffff8001100a8                kickstart
 .text          0xfffffff80011018b      0xe8f ../Arch/bin/libarch.a(panic.o)
                0xfffffff800110cc4                panic_handler
                0xfffffff800110f6f                kernel_panic
 .text          0xfffffff80011101a      0x516 ../Arch/bin/libarch.a(uart.o)
                0xfffffff8001111f5                uart_init
                0xfffffff800111317                uart_clear_screen
                0xfffffff80011134d                uart_scroll
                0xfffffff800111393                uart_console_write_keyboard
                0xfffffff8001113e8                uart_read
                0xfffffff80011145c                uart_put_string
                0xfffffff8001114bc                uart_put_char
                0xfffffff8001114ea                uart_received
                0xfffffff80011151c                uart_get_driver
 .text          0xfffffff800111530      0xa96 ../Arch/bin/libarch.a(vga_console.o)
                0xfffffff800111b3f                vga_console_init
                0xfffffff800111b5b                vga_console_clear_screen
                0xfffffff800111b95                vga_console_put_cursor_at
                0xfffffff800111c5c                vga_console_save_cursor
                0xfffffff800111c98                vga_console_restore_cursor
                0xfffffff800111cd3                vga_console_scroll
                0xfffffff800111e55                vga_console_set_color_scheme
                0xfffffff800111e8b                vga_console_save_color_scheme
                0xfffffff800111ec7                vga_console_put_string
                0xfffffff800111f22                vga_console_put_char
                0xfffffff800111f62                vga_console_write_keyboard
                0xfffffff800111fb2                vga_console_get_driver
 .text          0xfffffff800111fc6      0xdf3 ../Arch/bin/libarch.a(cpu.o)
                0xfffffff80011269f                cpu_init
                0xfffffff8001126ce                cpu_raise_interrupt
 *fill*         0xfffffff800112db9        0x7 
 .text          0xfffffff800112dc0       0x1b ../Arch/bin/libarch.a(cpu_sync.o)
                0xfffffff800112dc0                cpu_lock_spinlock
                0xfffffff800112dd4                cpu_unlock_spinlock
 *fill*         0xfffffff800112ddb        0x5 
 .text          0xfffffff800112de0      0xba9 ../Arch/bin/libarch.a(int_handlers.o)
                0xfffffff800112f19                interrupt_handler_8
                0xfffffff800112f20                interrupt_handler_10
                0xfffffff800112f27                interrupt_handler_11
                0xfffffff800112f2e                interrupt_handler_12
                0xfffffff800112f35                interrupt_handler_13
                0xfffffff800112f3c                interrupt_handler_14
                0xfffffff800112f43                interrupt_handler_17
                0xfffffff800112f4a                interrupt_handler_30
                0xfffffff800112f51                interrupt_handler_0
                0xfffffff800112f5a                interrupt_handler_1
                0xfffffff800112f63                interrupt_handler_2
                0xfffffff800112f6c                interrupt_handler_3
                0xfffffff800112f75                interrupt_handler_4
                0xfffffff800112f7e                interrupt_handler_5
                0xfffffff800112f87                interrupt_handler_6
                0xfffffff800112f90                interrupt_handler_7
                0xfffffff800112f99                interrupt_handler_9
                0xfffffff800112fa2                interrupt_handler_15
                0xfffffff800112fab                interrupt_handler_16
                0xfffffff800112fb4                interrupt_handler_18
                0xfffffff800112fbd                interrupt_handler_19
                0xfffffff800112fc6                interrupt_handler_20
                0xfffffff800112fcf                interrupt_handler_21
                0xfffffff800112fd8                interrupt_handler_22
                0xfffffff800112fe1                interrupt_handler_23
                0xfffffff800112fea                interrupt_handler_24
                0xfffffff800112ff3                interrupt_handler_25
                0xfffffff800112ffc                interrupt_handler_26
                0xfffffff800113005                interrupt_handler_27
                0xfffffff80011300e                interrupt_handler_28
                0xfffffff800113017                interrupt_handler_29
                0xfffffff800113020                interrupt_handler_31
                0xfffffff800113029                interrupt_handler_32
                0xfffffff800113032                interrupt_handler_33
                0xfffffff80011303b                interrupt_handler_34
                0xfffffff800113044                interrupt_handler_35
                0xfffffff80011304d                interrupt_handler_36
                0xfffffff800113056                interrupt_handler_37
                0xfffffff80011305f                interrupt_handler_38
                0xfffffff800113068                interrupt_handler_39
                0xfffffff800113071                interrupt_handler_40
                0xfffffff80011307a                interrupt_handler_41
                0xfffffff800113083                interrupt_handler_42
                0xfffffff80011308c                interrupt_handler_43
                0xfffffff800113095                interrupt_handler_44
                0xfffffff80011309e                interrupt_handler_45
                0xfffffff8001130a7                interrupt_handler_46
                0xfffffff8001130b0                interrupt_handler_47
                0xfffffff8001130b9                interrupt_handler_48
                0xfffffff8001130c2                interrupt_handler_49
                0xfffffff8001130cb                interrupt_handler_50
                0xfffffff8001130d4                interrupt_handler_51
                0xfffffff8001130dd                interrupt_handler_52
                0xfffffff8001130e6                interrupt_handler_53
                0xfffffff8001130ef                interrupt_handler_54
                0xfffffff8001130f8                interrupt_handler_55
                0xfffffff800113101                interrupt_handler_56
                0xfffffff80011310a                interrupt_handler_57
                0xfffffff800113113                interrupt_handler_58
                0xfffffff80011311c                interrupt_handler_59
                0xfffffff800113125                interrupt_handler_60
                0xfffffff80011312e                interrupt_handler_61
                0xfffffff800113137                interrupt_handler_62
                0xfffffff800113140                interrupt_handler_63
                0xfffffff800113149                interrupt_handler_64
                0xfffffff800113152                interrupt_handler_65
                0xfffffff80011315b                interrupt_handler_66
                0xfffffff800113164                interrupt_handler_67
                0xfffffff80011316d                interrupt_handler_68
                0xfffffff800113176                interrupt_handler_69
                0xfffffff80011317f                interrupt_handler_70
                0xfffffff800113188                interrupt_handler_71
                0xfffffff800113191                interrupt_handler_72
                0xfffffff80011319a                interrupt_handler_73
                0xfffffff8001131a3                interrupt_handler_74
                0xfffffff8001131ac                interrupt_handler_75
                0xfffffff8001131b5                interrupt_handler_76
                0xfffffff8001131be                interrupt_handler_77
                0xfffffff8001131c7                interrupt_handler_78
                0xfffffff8001131d0                interrupt_handler_79
                0xfffffff8001131d9                interrupt_handler_80
                0xfffffff8001131e2                interrupt_handler_81
                0xfffffff8001131eb                interrupt_handler_82
                0xfffffff8001131f4                interrupt_handler_83
                0xfffffff8001131fd                interrupt_handler_84
                0xfffffff800113206                interrupt_handler_85
                0xfffffff80011320f                interrupt_handler_86
                0xfffffff800113218                interrupt_handler_87
                0xfffffff800113221                interrupt_handler_88
                0xfffffff80011322a                interrupt_handler_89
                0xfffffff800113233                interrupt_handler_90
                0xfffffff80011323c                interrupt_handler_91
                0xfffffff800113245                interrupt_handler_92
                0xfffffff80011324e                interrupt_handler_93
                0xfffffff800113257                interrupt_handler_94
                0xfffffff800113260                interrupt_handler_95
                0xfffffff800113269                interrupt_handler_96
                0xfffffff800113272                interrupt_handler_97
                0xfffffff80011327b                interrupt_handler_98
                0xfffffff800113284                interrupt_handler_99
                0xfffffff80011328d                interrupt_handler_100
                0xfffffff800113296                interrupt_handler_101
                0xfffffff80011329f                interrupt_handler_102
                0xfffffff8001132a8                interrupt_handler_103
                0xfffffff8001132b1                interrupt_handler_104
                0xfffffff8001132ba                interrupt_handler_105
                0xfffffff8001132c3                interrupt_handler_106
                0xfffffff8001132cc                interrupt_handler_107
                0xfffffff8001132d5                interrupt_handler_108
                0xfffffff8001132de                interrupt_handler_109
                0xfffffff8001132e7                interrupt_handler_110
                0xfffffff8001132f0                interrupt_handler_111
                0xfffffff8001132f9                interrupt_handler_112
                0xfffffff800113302                interrupt_handler_113
                0xfffffff80011330b                interrupt_handler_114
                0xfffffff800113314                interrupt_handler_115
                0xfffffff80011331d                interrupt_handler_116
                0xfffffff800113326                interrupt_handler_117
                0xfffffff80011332f                interrupt_handler_118
                0xfffffff800113338                interrupt_handler_119
                0xfffffff800113341                interrupt_handler_120
                0xfffffff80011334a                interrupt_handler_121
                0xfffffff800113353                interrupt_handler_122
                0xfffffff80011335c                interrupt_handler_123
                0xfffffff800113365                interrupt_handler_124
                0xfffffff80011336e                interrupt_handler_125
                0xfffffff800113377                interrupt_handler_126
                0xfffffff800113380                interrupt_handler_127
                0xfffffff800113389                interrupt_handler_128
                0xfffffff800113395                interrupt_handler_129
                0xfffffff8001133a1                interrupt_handler_130
                0xfffffff8001133ad                interrupt_handler_131
                0xfffffff8001133b9                interrupt_handler_132
                0xfffffff8001133c5                interrupt_handler_133
                0xfffffff8001133d1                interrupt_handler_134
                0xfffffff8001133dd                interrupt_handler_135
                0xfffffff8001133e9                interrupt_handler_136
                0xfffffff8001133f5                interrupt_handler_137
                0xfffffff800113401                interrupt_handler_138
                0xfffffff80011340d                interrupt_handler_139
                0xfffffff800113419                interrupt_handler_140
                0xfffffff800113425                interrupt_handler_141
                0xfffffff800113431                interrupt_handler_142
                0xfffffff80011343d                interrupt_handler_143
                0xfffffff800113449                interrupt_handler_144
                0xfffffff800113455                interrupt_handler_145
                0xfffffff800113461                interrupt_handler_146
                0xfffffff80011346d                interrupt_handler_147
                0xfffffff800113479                interrupt_handler_148
                0xfffffff800113485                interrupt_handler_149
                0xfffffff800113491                interrupt_handler_150
                0xfffffff80011349d                interrupt_handler_151
                0xfffffff8001134a9                interrupt_handler_152
                0xfffffff8001134b5                interrupt_handler_153
                0xfffffff8001134c1                interrupt_handler_154
                0xfffffff8001134cd                interrupt_handler_155
                0xfffffff8001134d9                interrupt_handler_156
                0xfffffff8001134e5                interrupt_handler_157
                0xfffffff8001134f1                interrupt_handler_158
                0xfffffff8001134fd                interrupt_handler_159
                0xfffffff800113509                interrupt_handler_160
                0xfffffff800113515                interrupt_handler_161
                0xfffffff800113521                interrupt_handler_162
                0xfffffff80011352d                interrupt_handler_163
                0xfffffff800113539                interrupt_handler_164
                0xfffffff800113545                interrupt_handler_165
                0xfffffff800113551                interrupt_handler_166
                0xfffffff80011355d                interrupt_handler_167
                0xfffffff800113569                interrupt_handler_168
                0xfffffff800113575                interrupt_handler_169
                0xfffffff800113581                interrupt_handler_170
                0xfffffff80011358d                interrupt_handler_171
                0xfffffff800113599                interrupt_handler_172
                0xfffffff8001135a5                interrupt_handler_173
                0xfffffff8001135b1                interrupt_handler_174
                0xfffffff8001135bd                interrupt_handler_175
                0xfffffff8001135c9                interrupt_handler_176
                0xfffffff8001135d5                interrupt_handler_177
                0xfffffff8001135e1                interrupt_handler_178
                0xfffffff8001135ed                interrupt_handler_179
                0xfffffff8001135f9                interrupt_handler_180
                0xfffffff800113605                interrupt_handler_181
                0xfffffff800113611                interrupt_handler_182
                0xfffffff80011361d                interrupt_handler_183
                0xfffffff800113629                interrupt_handler_184
                0xfffffff800113635                interrupt_handler_185
                0xfffffff800113641                interrupt_handler_186
                0xfffffff80011364d                interrupt_handler_187
                0xfffffff800113659                interrupt_handler_188
                0xfffffff800113665                interrupt_handler_189
                0xfffffff800113671                interrupt_handler_190
                0xfffffff80011367d                interrupt_handler_191
                0xfffffff800113689                interrupt_handler_192
                0xfffffff800113695                interrupt_handler_193
                0xfffffff8001136a1                interrupt_handler_194
                0xfffffff8001136ad                interrupt_handler_195
                0xfffffff8001136b9                interrupt_handler_196
                0xfffffff8001136c5                interrupt_handler_197
                0xfffffff8001136d1                interrupt_handler_198
                0xfffffff8001136dd                interrupt_handler_199
                0xfffffff8001136e9                interrupt_handler_200
                0xfffffff8001136f5                interrupt_handler_201
                0xfffffff800113701                interrupt_handler_202
                0xfffffff80011370d                interrupt_handler_203
                0xfffffff800113719                interrupt_handler_204
                0xfffffff800113725                interrupt_handler_205
                0xfffffff800113731                interrupt_handler_206
                0xfffffff80011373d                interrupt_handler_207
                0xfffffff800113749                interrupt_handler_208
                0xfffffff800113755                interrupt_handler_209
                0xfffffff800113761                interrupt_handler_210
                0xfffffff80011376d                interrupt_handler_211
                0xfffffff800113779                interrupt_handler_212
                0xfffffff800113785                interrupt_handler_213
                0xfffffff800113791                interrupt_handler_214
                0xfffffff80011379d                interrupt_handler_215
                0xfffffff8001137a9                interrupt_handler_216
                0xfffffff8001137b5                interrupt_handler_217
                0xfffffff8001137c1                interrupt_handler_218
                0xfffffff8001137cd                interrupt_handler_219
                0xfffffff8001137d9                interrupt_handler_220
                0xfffffff8001137e5                interrupt_handler_221
                0xfffffff8001137f1                interrupt_handler_222
                0xfffffff8001137fd                interrupt_handler_223
                0xfffffff800113809                interrupt_handler_224
                0xfffffff800113815                interrupt_handler_225
                0xfffffff800113821                interrupt_handler_226
                0xfffffff80011382d                interrupt_handler_227
                0xfffffff800113839                interrupt_handler_228
                0xfffffff800113845                interrupt_handler_229
                0xfffffff800113851                interrupt_handler_230
                0xfffffff80011385d                interrupt_handler_231
                0xfffffff800113869                interrupt_handler_232
                0xfffffff800113875                interrupt_handler_233
                0xfffffff800113881                interrupt_handler_234
                0xfffffff80011388d                interrupt_handler_235
                0xfffffff800113899                interrupt_handler_236
                0xfffffff8001138a5                interrupt_handler_237
                0xfffffff8001138b1                interrupt_handler_238
                0xfffffff8001138bd                interrupt_handler_239
                0xfffffff8001138c9                interrupt_handler_240
                0xfffffff8001138d5                interrupt_handler_241
                0xfffffff8001138e1                interrupt_handler_242
                0xfffffff8001138ed                interrupt_handler_243
                0xfffffff8001138f9                interrupt_handler_244
                0xfffffff800113905                interrupt_handler_245
                0xfffffff800113911                interrupt_handler_246
                0xfffffff80011391d                interrupt_handler_247
                0xfffffff800113929                interrupt_handler_248
                0xfffffff800113935                interrupt_handler_249
                0xfffffff800113941                interrupt_handler_250
                0xfffffff80011394d                interrupt_handler_251
                0xfffffff800113959                interrupt_handler_252
                0xfffffff800113965                interrupt_handler_253
                0xfffffff800113971                interrupt_handler_254
                0xfffffff80011397d                interrupt_handler_255
 .text          0xfffffff800113989      0x5b5 ../Core/bin/libcore.a(interrupts.o)
                0xfffffff800113a62                kernel_interrupt_handler
                0xfffffff800113b4b                kernel_interrupt_init
                0xfffffff800113c10                kernel_interrupt_set_driver
                0xfffffff800113cb4                kernel_interrupt_register_int_handler
                0xfffffff800113d55                kernel_interrupt_remove_int_handler
                0xfffffff800113de4                kernel_interrupt_register_irq_handler
                0xfffffff800113e3c                kernel_interrupt_remove_irq_handler
                0xfffffff800113e89                kernel_interrupt_restore
                0xfffffff800113ead                kernel_interrupt_disable
                0xfffffff800113ee6                kernel_interrupt_set_irq_mask
                0xfffffff800113f17                kernel_interrupt_set_irq_eoi
 .text          0xfffffff800113f3e       0x39 ../Core/bin/libcore.a(scheduler.o)
                0xfffffff800113f3e                scheduler_dummy_init
                0xfffffff800113f60                scheduler_get_current_thread
 .text          0xfffffff800113f77      0x325 ../IO/bin/libio.a(console.o)
                0xfffffff800113f77                console_set_selected_driver
                0xfffffff80011402c                console_clear_screen
                0xfffffff800114058                console_put_cursor_at
                0xfffffff80011409a                console_save_cursor
                0xfffffff8001140d6                console_restore_cursor
                0xfffffff800114112                console_scroll
                0xfffffff800114154                console_set_color_scheme
                0xfffffff80011419e                console_save_color_scheme
                0xfffffff8001141da                console_put_string
                0xfffffff800114217                console_put_char
                0xfffffff800114254                console_console_write_keyboard
 .text          0xfffffff80011429c     0x1afc ../IO/bin/libio.a(kernel_output.o)
                0xfffffff8001154f4                kernel_printf
                0xfffffff8001155dc                kernel_error
                0xfffffff800115753                kernel_success
                0xfffffff8001158ca                kernel_info
                0xfffffff800115a41                kernel_warning
                0xfffffff800115bb8                kernel_debug
                0xfffffff800115d2f                kernel_doprint
 .text          0xfffffff800115d98       0x5f ../Libs/bin/liblibc.a(itoa.o)
                0xfffffff800115d98                itoa
 .text          0xfffffff800115df7       0x9c ../Libs/bin/liblibc.a(memmove.o)
                0xfffffff800115df7                memmove
 .text          0xfffffff800115e93       0x68 ../Libs/bin/liblibc.a(memset.o)
                0xfffffff800115e93                memset
 .text          0xfffffff800115efb       0x30 ../Libs/bin/liblibc.a(strlen.o)
                0xfffffff800115efb                strlen
 .text          0xfffffff800115f2b      0x11b ../Libs/bin/liblibc.a(uitoa.o)
                0xfffffff800115f2b                uitoa
 *(.text*)
                0xfffffff800116046                _END_TEXT_ADDR = .
                0xfffffff800150000                . = ORIGIN (KERNEL_RO_DATA)

.rodata         0xfffffff800150000     0x149b load address 0x0000000000150000
                0xfffffff800150000                _START_RO_DATA_ADDR = .
 *(.rodata)
 .rodata        0xfffffff800150000       0x3c ../Arch/bin/libarch.a(kickstart.o)
 *fill*         0xfffffff80015003c        0x4 
 .rodata        0xfffffff800150040      0x961 ../Arch/bin/libarch.a(panic.o)
 *fill*         0xfffffff8001509a1        0x7 
 .rodata        0xfffffff8001509a8       0x30 ../Arch/bin/libarch.a(vga_console.o)
 .rodata        0xfffffff8001509d8      0x850 ../Arch/bin/libarch.a(cpu.o)
 .rodata        0xfffffff800151228      0x273 ../IO/bin/libio.a(kernel_output.o)
 *(.rodata*)

.eh_frame       0xfffffff800152000      0xc40 load address 0x0000000000152000
 *(.eh_frame)
 .eh_frame      0xfffffff800152000       0x38 ../Arch/bin/libarch.a(kickstart.o)
 .eh_frame      0xfffffff800152038       0xd8 ../Arch/bin/libarch.a(panic.o)
                                         0xf0 (size before relaxing)
 .eh_frame      0xfffffff800152110      0x1e0 ../Arch/bin/libarch.a(uart.o)
                                        0x1f8 (size before relaxing)
 .eh_frame      0xfffffff8001522f0      0x208 ../Arch/bin/libarch.a(vga_console.o)
                                        0x220 (size before relaxing)
 .eh_frame      0xfffffff8001524f8       0xe0 ../Arch/bin/libarch.a(cpu.o)
                                         0xf8 (size before relaxing)
 .eh_frame      0xfffffff8001525d8      0x2a0 ../Core/bin/libcore.a(interrupts.o)
                                        0x2b8 (size before relaxing)
 .eh_frame      0xfffffff800152878       0x40 ../Core/bin/libcore.a(scheduler.o)
                                         0x58 (size before relaxing)
 .eh_frame      0xfffffff8001528b8      0x168 ../IO/bin/libio.a(console.o)
                                        0x180 (size before relaxing)
 .eh_frame      0xfffffff800152a20      0x180 ../IO/bin/libio.a(kernel_output.o)
                                        0x198 (size before relaxing)
 .eh_frame      0xfffffff800152ba0       0x20 ../Libs/bin/liblibc.a(itoa.o)
                                         0x38 (size before relaxing)
 .eh_frame      0xfffffff800152bc0       0x20 ../Libs/bin/liblibc.a(memmove.o)
                                         0x38 (size before relaxing)
 .eh_frame      0xfffffff800152be0       0x20 ../Libs/bin/liblibc.a(memset.o)
                                         0x38 (size before relaxing)
 .eh_frame      0xfffffff800152c00       0x20 ../Libs/bin/liblibc.a(strlen.o)
                                         0x38 (size before relaxing)
 .eh_frame      0xfffffff800152c20       0x20 ../Libs/bin/liblibc.a(uitoa.o)
                                         0x38 (size before relaxing)
                0xfffffff800152c40                _END_RO_DATA_ADDR = .
                0xfffffff800160000                . = ORIGIN (KERNEL_RW_DATA)

.data           0xfffffff800160000      0x910 load address 0x0000000000160000
                0xfffffff800160000                _START_DATA_ADDR = .
 *(.data)
 .data          0xfffffff800160000       0x1a ../Arch/bin/libarch.a(init_64.o)
                0xfffffff800160000                _kernel_multiboot_ptr
                0xfffffff800160008                _kernel_cpu_count
 .data          0xfffffff80016001a        0x0 ../Arch/bin/libarch.a(kickstart.o)
 .data          0xfffffff80016001a        0x0 ../Arch/bin/libarch.a(panic.o)
 *fill*         0xfffffff80016001a        0x6 
 .data          0xfffffff800160020       0x50 ../Arch/bin/libarch.a(uart.o)
 *fill*         0xfffffff800160070       0x10 
 .data          0xfffffff800160080       0x70 ../Arch/bin/libarch.a(vga_console.o)
 *fill*         0xfffffff8001600f0       0x10 
 .data          0xfffffff800160100      0x800 ../Arch/bin/libarch.a(cpu.o)
 .data          0xfffffff800160900        0x0 ../Core/bin/libcore.a(interrupts.o)
 .data          0xfffffff800160900        0x0 ../Core/bin/libcore.a(scheduler.o)
 .data          0xfffffff800160900        0x0 ../IO/bin/libio.a(console.o)
 .data          0xfffffff800160900        0x0 ../IO/bin/libio.a(kernel_output.o)
 .data          0xfffffff800160900        0x0 ../Libs/bin/liblibc.a(itoa.o)
 .data          0xfffffff800160900        0x0 ../Libs/bin/liblibc.a(memmove.o)
 .data          0xfffffff800160900        0x0 ../Libs/bin/liblibc.a(memset.o)
 .data          0xfffffff800160900        0x0 ../Libs/bin/liblibc.a(strlen.o)
 .data          0xfffffff800160900       0x10 ../Libs/bin/liblibc.a(uitoa.o)
 *(.data*)
                0xfffffff800160910                _END_DATA_ADDR = .

.bss            0xfffffff800161000     0x1d40 load address 0x0000000000161000
                0xfffffff800161000                _START_BSS_ADDR = .
 *(COMMON)
 *(.bss)
 .bss           0xfffffff800161000        0x0 ../Arch/bin/libarch.a(kickstart.o)
 .bss           0xfffffff800161000       0x20 ../Arch/bin/libarch.a(panic.o)
 .bss           0xfffffff800161020        0x4 ../Arch/bin/libarch.a(uart.o)
 *fill*         0xfffffff800161024       0x1c 
 .bss           0xfffffff800161040       0x84 ../Arch/bin/libarch.a(vga_console.o)
 *fill*         0xfffffff8001610c4        0x4 
 .bss           0xfffffff8001610c8     0x1248 ../Arch/bin/libarch.a(cpu.o)
 *fill*         0xfffffff800162310       0x10 
 .bss           0xfffffff800162320      0x828 ../Core/bin/libcore.a(interrupts.o)
                0xfffffff800162320                kernel_interrupt_handlers
 *fill*         0xfffffff800162b48       0x18 
 .bss           0xfffffff800162b60      0x180 ../Core/bin/libcore.a(scheduler.o)
                0xfffffff800162b60                current_thread
                0xfffffff800162b80                dummy_thread
 .bss           0xfffffff800162ce0       0x50 ../IO/bin/libio.a(console.o)
 .bss           0xfffffff800162d30       0x10 ../IO/bin/libio.a(kernel_output.o)
 .bss           0xfffffff800162d40        0x0 ../Libs/bin/liblibc.a(itoa.o)
 .bss           0xfffffff800162d40        0x0 ../Libs/bin/liblibc.a(memmove.o)
 .bss           0xfffffff800162d40        0x0 ../Libs/bin/liblibc.a(memset.o)
 .bss           0xfffffff800162d40        0x0 ../Libs/bin/liblibc.a(strlen.o)
 .bss           0xfffffff800162d40        0x0 ../Libs/bin/liblibc.a(uitoa.o)
                0xfffffff800162d40                _END_BSS_ADDR = .
                0xfffffff800200000                _KERNEL_STACKS_BASE = ORIGIN (KERNEL_STACKS)
                0x0000000000010000                _KERNEL_STACKS_SIZE = LENGTH (KERNEL_STACKS)
                0xfffffff800210000                _KERNEL_HEAP_BASE = ORIGIN (KERNEL_HEAP)
                0x0000000000a00000                _KERNEL_HEAP_SIZE = LENGTH (KERNEL_HEAP)
                0x0000000000001000                _KERNEL_BIOS_MEMORY_BASE = ORIGIN (KERNEL_BIOS_CALL_MEM)
                0x0000000000001000                _KERNEL_BIOS_MEMORY_SIZE = LENGTH (KERNEL_BIOS_CALL_MEM)
                0xfffffff800190000                _KERNEL_MULTIBOOT_MEM_BASE = ORIGIN (KERNEL_MULTIBOOT_MEM)
                0x0000000000010000                _KERNEL_MULTIBOOT_MEM_SIZE = LENGTH (KERNEL_MULTIBOOT_MEM)
                0xfffffff800170000                _KERNEL_SYMTAB_REG_BASE = ORIGIN (KERNEL_SYM_TAB)
                0x0000000000010000                _KERNEL_SYMTAB_REG_SIZE = LENGTH (KERNEL_SYM_TAB)
                0xfffffff800170000                _KERNEL_SYMTAB_ADDR = _KERNEL_SYMTAB_REG_BASE
                0xfffffff800170004                _KERNEL_SYMTAB_SIZE = (_KERNEL_SYMTAB_ADDR + 0x4)
                0xfffffff800170008                _KERNEL_STRTAB_ADDR = (_KERNEL_SYMTAB_SIZE + 0x4)
                0xfffffff80017000c                _KERNEL_STRTAB_SIZE = (_KERNEL_STRTAB_ADDR + 0x4)
                0xfffffff800170010                _KERNEL_SYMTAB_FREE_START = (_KERNEL_STRTAB_SIZE + 0x4)
                0xfffffff800180000                _KERNEL_TRACE_BUFFER_BASE = ORIGIN (KERNEL_TRACE_BUFFER)
                0x0000000000010000                _KERNEL_TRACE_BUFFER_SIZE = LENGTH (KERNEL_TRACE_BUFFER)
LOAD ../Arch/bin/libarch.a
LOAD ../Core/bin/libcore.a
LOAD ../IO/bin/libio.a
LOAD ../Libs/bin/liblibc.a
LOAD ../Libs/bin/libapi.a
LOAD ../Libs/bin/libtrace.a
LOAD ../Arch/CPU/build/init_32.o
OUTPUT(./build/UTK.elf elf64-x86-64)

.debug_aranges  0x0000000000000000      0x330
 .debug_aranges
                0x0000000000000000       0x30 ../Arch/bin/libarch.a(init_64.o)
 .debug_aranges
                0x0000000000000030       0x30 ../Arch/bin/libarch.a(kickstart.o)
 .debug_aranges
                0x0000000000000060       0x30 ../Arch/bin/libarch.a(panic.o)
 .debug_aranges
                0x0000000000000090       0x30 ../Arch/bin/libarch.a(uart.o)
 .debug_aranges
                0x00000000000000c0       0x30 ../Arch/bin/libarch.a(vga_console.o)
 .debug_aranges
                0x00000000000000f0       0x30 ../Arch/bin/libarch.a(cpu.o)
 .debug_aranges
                0x0000000000000120       0x30 ../Arch/bin/libarch.a(cpu_sync.o)
 .debug_aranges
                0x0000000000000150       0x30 ../Arch/bin/libarch.a(int_handlers.o)
 .debug_aranges
                0x0000000000000180       0x30 ../Core/bin/libcore.a(interrupts.o)
 .debug_aranges
                0x00000000000001b0       0x30 ../Core/bin/libcore.a(scheduler.o)
 .debug_aranges
                0x00000000000001e0       0x30 ../IO/bin/libio.a(console.o)
 .debug_aranges
                0x0000000000000210       0x30 ../IO/bin/libio.a(kernel_output.o)
 .debug_aranges
                0x0000000000000240       0x30 ../Libs/bin/liblibc.a(itoa.o)
 .debug_aranges
                0x0000000000000270       0x30 ../Libs/bin/liblibc.a(memmove.o)
 .debug_aranges
                0x00000000000002a0       0x30 ../Libs/bin/liblibc.a(memset.o)
 .debug_aranges
                0x00000000000002d0       0x30 ../Libs/bin/liblibc.a(strlen.o)
 .debug_aranges
                0x0000000000000300       0x30 ../Libs/bin/liblibc.a(uitoa.o)

.debug_pubnames
                0x0000000000000000        0x0
 .debug_pubnames
                0x0000000000000000        0x0 ../Arch/bin/libarch.a(init_64.o)
 .debug_pubnames
                0x0000000000000000        0x0 ../Arch/bin/libarch.a(cpu_sync.o)
 .debug_pubnames
                0x0000000000000000        0x0 ../Arch/bin/libarch.a(int_handlers.o)

.debug_info     0x0000000000000000     0x56f1
 .debug_info    0x0000000000000000       0x4f ../Arch/bin/libarch.a(init_64.o)
 .debug_info    0x000000000000004f      0x421 ../Arch/bin/libarch.a(kickstart.o)
 .debug_info    0x0000000000000470      0xdb8 ../Arch/bin/libarch.a(panic.o)
 .debug_info    0x0000000000001228      0x89f ../Arch/bin/libarch.a(uart.o)
 .debug_info    0x0000000000001ac7      0x913 ../Arch/bin/libarch.a(vga_console.o)
 .debug_info    0x00000000000023da      0xeef ../Arch/bin/libarch.a(cpu.o)
 .debug_info    0x00000000000032c9       0x50 ../Arch/bin/libarch.a(cpu_sync.o)
 .debug_info    0x0000000000003319       0x54 ../Arch/bin/libarch.a(int_handlers.o)
 .debug_info    0x000000000000336d      0xba3 ../Core/bin/libcore.a(interrupts.o)
 .debug_info    0x0000000000003f10      0x4c4 ../Core/bin/libcore.a(scheduler.o)
 .debug_info    0x00000000000043d4      0x4ea ../IO/bin/libio.a(console.o)
 .debug_info    0x00000000000048be      0x908 ../IO/bin/libio.a(kernel_output.o)
 .debug_info    0x00000000000051c6      0x111 ../Libs/bin/liblibc.a(itoa.o)
 .debug_info    0x00000000000052d7      0x103 ../Libs/bin/liblibc.a(memmove.o)
 .debug_info    0x00000000000053da       0xf3 ../Libs/bin/liblibc.a(memset.o)
 .debug_info    0x00000000000054cd       0xd5 ../Libs/bin/liblibc.a(strlen.o)
 .debug_info    0x00000000000055a2      0x14f ../Libs/bin/liblibc.a(uitoa.o)

.debug_abbrev   0x0000000000000000     0x144d
 .debug_abbrev  0x0000000000000000       0x1b ../Arch/bin/libarch.a(init_64.o)
 .debug_abbrev  0x000000000000001b      0x159 ../Arch/bin/libarch.a(kickstart.o)
 .debug_abbrev  0x0000000000000174      0x260 ../Arch/bin/libarch.a(panic.o)
 .debug_abbrev  0x00000000000003d4      0x203 ../Arch/bin/libarch.a(uart.o)
 .debug_abbrev  0x00000000000005d7      0x20b ../Arch/bin/libarch.a(vga_console.o)
 .debug_abbrev  0x00000000000007e2      0x203 ../Arch/bin/libarch.a(cpu.o)
 .debug_abbrev  0x00000000000009e5       0x1b ../Arch/bin/libarch.a(cpu_sync.o)
 .debug_abbrev  0x0000000000000a00       0x1b ../Arch/bin/libarch.a(int_handlers.o)
 .debug_abbrev  0x0000000000000a1b      0x2c7 ../Core/bin/libcore.a(interrupts.o)
 .debug_abbrev  0x0000000000000ce2      0x12c ../Core/bin/libcore.a(scheduler.o)
 .debug_abbrev  0x0000000000000e0e      0x140 ../IO/bin/libio.a(console.o)
 .debug_abbrev  0x0000000000000f4e      0x1e4 ../IO/bin/libio.a(kernel_output.o)
 .debug_abbrev  0x0000000000001132       0xa7 ../Libs/bin/liblibc.a(itoa.o)
 .debug_abbrev  0x00000000000011d9       0x9b ../Libs/bin/liblibc.a(memmove.o)
 .debug_abbrev  0x0000000000001274       0x8e ../Libs/bin/liblibc.a(memset.o)
 .debug_abbrev  0x0000000000001302       0x8a ../Libs/bin/liblibc.a(strlen.o)
 .debug_abbrev  0x000000000000138c       0xc1 ../Libs/bin/liblibc.a(uitoa.o)

.debug_line     0x0000000000000000     0x1ff5
 .debug_line    0x0000000000000000       0x6a ../Arch/bin/libarch.a(init_64.o)
 .debug_line    0x000000000000006a       0xcc ../Arch/bin/libarch.a(kickstart.o)
 .debug_line    0x0000000000000136      0x3eb ../Arch/bin/libarch.a(panic.o)
 .debug_line    0x0000000000000521      0x28a ../Arch/bin/libarch.a(uart.o)
 .debug_line    0x00000000000007ab      0x3e5 ../Arch/bin/libarch.a(vga_console.o)
 .debug_line    0x0000000000000b90      0x448 ../Arch/bin/libarch.a(cpu.o)
 .debug_line    0x0000000000000fd8       0x4e ../Arch/bin/libarch.a(cpu_sync.o)
 .debug_line    0x0000000000001026      0x38a ../Arch/bin/libarch.a(int_handlers.o)
 .debug_line    0x00000000000013b0      0x280 ../Core/bin/libcore.a(interrupts.o)
 .debug_line    0x0000000000001630       0xa3 ../Core/bin/libcore.a(scheduler.o)
 .debug_line    0x00000000000016d3      0x15f ../IO/bin/libio.a(console.o)
 .debug_line    0x0000000000001832      0x484 ../IO/bin/libio.a(kernel_output.o)
 .debug_line    0x0000000000001cb6       0x9d ../Libs/bin/liblibc.a(itoa.o)
 .debug_line    0x0000000000001d53       0x9a ../Libs/bin/liblibc.a(memmove.o)
 .debug_line    0x0000000000001ded       0x99 ../Libs/bin/liblibc.a(memset.o)
 .debug_line    0x0000000000001e86       0x8a ../Libs/bin/liblibc.a(strlen.o)
 .debug_line    0x0000000000001f10       0xe5 ../Libs/bin/liblibc.a(uitoa.o)

.debug_frame    0x0000000000000000        0x0
 .debug_frame   0x0000000000000000        0x0 ../Arch/bin/libarch.a(init_64.o)
 .debug_frame   0x0000000000000000        0x0 ../Arch/bin/libarch.a(cpu_sync.o)
 .debug_frame   0x0000000000000000        0x0 ../Arch/bin/libarch.a(int_handlers.o)

.debug_loc      0x0000000000000000        0x0
 .debug_loc     0x0000000000000000        0x0 ../Arch/bin/libarch.a(init_64.o)
 .debug_loc     0x0000000000000000        0x0 ../Arch/bin/libarch.a(cpu_sync.o)
 .debug_loc     0x0000000000000000        0x0 ../Arch/bin/libarch.a(int_handlers.o)

.debug_macro    0x0000000000000000     0x17fa
 .debug_macro   0x0000000000000000       0xb5 ../Arch/bin/libarch.a(kickstart.o)
 .debug_macro   0x00000000000000b5      0x8c2 ../Arch/bin/libarch.a(kickstart.o)
 .debug_macro   0x0000000000000977       0x5e ../Arch/bin/libarch.a(kickstart.o)
 .debug_macro   0x00000000000009d5      0x11e ../Arch/bin/libarch.a(kickstart.o)
 .debug_macro   0x0000000000000af3       0x1c ../Arch/bin/libarch.a(kickstart.o)
 .debug_macro   0x0000000000000b0f       0xca ../Arch/bin/libarch.a(kickstart.o)
 .debug_macro   0x0000000000000bd9       0x28 ../Arch/bin/libarch.a(kickstart.o)
 .debug_macro   0x0000000000000c01       0x16 ../Arch/bin/libarch.a(kickstart.o)
 .debug_macro   0x0000000000000c17       0x10 ../Arch/bin/libarch.a(kickstart.o)
 .debug_macro   0x0000000000000c27       0xba ../Arch/bin/libarch.a(panic.o)
 .debug_macro   0x0000000000000ce1       0xa6 ../Arch/bin/libarch.a(panic.o)
 .debug_macro   0x0000000000000d87       0xc4 ../Arch/bin/libarch.a(panic.o)
 .debug_macro   0x0000000000000e4b       0x10 ../Arch/bin/libarch.a(panic.o)
 .debug_macro   0x0000000000000e5b      0x18f ../Arch/bin/libarch.a(uart.o)
 .debug_macro   0x0000000000000fea       0x28 ../Arch/bin/libarch.a(uart.o)
 .debug_macro   0x0000000000001012       0xcf ../Arch/bin/libarch.a(vga_console.o)
 .debug_macro   0x00000000000010e1       0x10 ../Arch/bin/libarch.a(vga_console.o)
 .debug_macro   0x00000000000010f1      0x234 ../Arch/bin/libarch.a(cpu.o)
 .debug_macro   0x0000000000001325       0xc7 ../Core/bin/libcore.a(interrupts.o)
 .debug_macro   0x00000000000013ec       0x89 ../Core/bin/libcore.a(scheduler.o)
 .debug_macro   0x0000000000001475       0x5e ../IO/bin/libio.a(console.o)
 .debug_macro   0x00000000000014d3       0x22 ../IO/bin/libio.a(console.o)
 .debug_macro   0x00000000000014f5      0x14f ../IO/bin/libio.a(kernel_output.o)
 .debug_macro   0x0000000000001644       0x54 ../Libs/bin/liblibc.a(itoa.o)
 .debug_macro   0x0000000000001698       0x5a ../Libs/bin/liblibc.a(memmove.o)
 .debug_macro   0x00000000000016f2       0x5a ../Libs/bin/liblibc.a(memset.o)
 .debug_macro   0x000000000000174c       0x5a ../Libs/bin/liblibc.a(strlen.o)
 .debug_macro   0x00000000000017a6       0x54 ../Libs/bin/liblibc.a(uitoa.o)

.debug_str      0x0000000000000000     0x72d5
 .debug_str     0x0000000000000000     0x3930 ../Arch/bin/libarch.a(kickstart.o)
                                       0x3a5e (size before relaxing)
 .debug_str     0x0000000000003930      0x728 ../Arch/bin/libarch.a(panic.o)
                                       0x400b (size before relaxing)
 .debug_str     0x0000000000004058      0x797 ../Arch/bin/libarch.a(uart.o)
                                       0x3daf (size before relaxing)
 .debug_str     0x00000000000047ef      0x314 ../Arch/bin/libarch.a(vga_console.o)
                                       0x3b72 (size before relaxing)
 .debug_str     0x0000000000004b03     0x2081 ../Arch/bin/libarch.a(cpu.o)
                                       0x58ac (size before relaxing)
 .debug_str     0x0000000000006b84      0x348 ../Core/bin/libcore.a(interrupts.o)
                                       0x411c (size before relaxing)
 .debug_str     0x0000000000006ecc       0x68 ../Core/bin/libcore.a(scheduler.o)
                                       0x36d5 (size before relaxing)
 .debug_str     0x0000000000006f34       0x1f ../IO/bin/libio.a(console.o)
                                       0x35ed (size before relaxing)
 .debug_str     0x0000000000006f53      0x373 ../IO/bin/libio.a(kernel_output.o)
                                       0x3a9e (size before relaxing)
 .debug_str     0x00000000000072c6     0x32d8 ../Libs/bin/liblibc.a(itoa.o)
 .debug_str     0x00000000000072c6     0x32bd ../Libs/bin/liblibc.a(memmove.o)
 .debug_str     0x00000000000072c6     0x32bc ../Libs/bin/liblibc.a(memset.o)
 .debug_str     0x00000000000072c6     0x32bc ../Libs/bin/liblibc.a(strlen.o)
 .debug_str     0x00000000000072c6        0xf ../Libs/bin/liblibc.a(uitoa.o)
                                       0x32da (size before relaxing)

.debug_line_str
                0x0000000000000000      0x38e
 .debug_line_str
                0x0000000000000000      0x17c ../Arch/bin/libarch.a(kickstart.o)
                                        0x1df (size before relaxing)
 .debug_line_str
                0x000000000000017c       0x80 ../Arch/bin/libarch.a(panic.o)
                                        0x1ef (size before relaxing)
 .debug_line_str
                0x00000000000001fc       0x16 ../Arch/bin/libarch.a(uart.o)
                                        0x1db (size before relaxing)
 .debug_line_str
                0x0000000000000212       0x12 ../Arch/bin/libarch.a(vga_console.o)
                                        0x1c2 (size before relaxing)
 .debug_line_str
                0x0000000000000224        0xa ../Arch/bin/libarch.a(cpu.o)
                                        0x17f (size before relaxing)
 .debug_line_str
                0x000000000000022e       0x67 ../Core/bin/libcore.a(interrupts.o)
                                        0x1b5 (size before relaxing)
 .debug_line_str
                0x0000000000000295       0x10 ../Core/bin/libcore.a(scheduler.o)
                                        0x15e (size before relaxing)
 .debug_line_str
                0x00000000000002a5       0x3a ../IO/bin/libio.a(console.o)
                                        0x123 (size before relaxing)
 .debug_line_str
                0x00000000000002df       0x28 ../IO/bin/libio.a(kernel_output.o)
                                        0x162 (size before relaxing)
 .debug_line_str
                0x0000000000000307       0x53 ../Libs/bin/liblibc.a(itoa.o)
                                         0xee (size before relaxing)
 .debug_line_str
                0x000000000000035a        0xe ../Libs/bin/liblibc.a(memmove.o)
                                         0xf7 (size before relaxing)
 .debug_line_str
                0x0000000000000368        0xd ../Libs/bin/liblibc.a(memset.o)
                                         0xf4 (size before relaxing)
 .debug_line_str
                0x0000000000000375        0xd ../Libs/bin/liblibc.a(strlen.o)
                                         0xf4 (size before relaxing)
 .debug_line_str
                0x0000000000000382        0xc ../Libs/bin/liblibc.a(uitoa.o)
                                         0xf1 (size before relaxing)

.comment        0x0000000000000000       0x2b
 .comment       0x0000000000000000       0x2b ../Arch/bin/libarch.a(kickstart.o)
                                         0x2c (size before relaxing)
 .comment       0x000000000000002b       0x2c ../Arch/bin/libarch.a(panic.o)
 .comment       0x000000000000002b       0x2c ../Arch/bin/libarch.a(uart.o)
 .comment       0x000000000000002b       0x2c ../Arch/bin/libarch.a(vga_console.o)
 .comment       0x000000000000002b       0x2c ../Arch/bin/libarch.a(cpu.o)
 .comment       0x000000000000002b       0x2c ../Core/bin/libcore.a(interrupts.o)
 .comment       0x000000000000002b       0x2c ../Core/bin/libcore.a(scheduler.o)
 .comment       0x000000000000002b       0x2c ../IO/bin/libio.a(console.o)
 .comment       0x000000000000002b       0x2c ../IO/bin/libio.a(kernel_output.o)
 .comment       0x000000000000002b       0x2c ../Libs/bin/liblibc.a(itoa.o)
 .comment       0x000000000000002b       0x2c ../Libs/bin/liblibc.a(memmove.o)
 .comment       0x000000000000002b       0x2c ../Libs/bin/liblibc.a(memset.o)
 .comment       0x000000000000002b       0x2c ../Libs/bin/liblibc.a(strlen.o)
 .comment       0x000000000000002b       0x2c ../Libs/bin/liblibc.a(uitoa.o)

.note.GNU-stack
                0x0000000000000000        0x0
 .note.GNU-stack
                0x0000000000000000        0x0 ../Arch/bin/libarch.a(kickstart.o)
 .note.GNU-stack
                0x0000000000000000        0x0 ../Arch/bin/libarch.a(panic.o)
 .note.GNU-stack
                0x0000000000000000        0x0 ../Arch/bin/libarch.a(uart.o)
 .note.GNU-stack
                0x0000000000000000        0x0 ../Arch/bin/libarch.a(vga_console.o)
 .note.GNU-stack
                0x0000000000000000        0x0 ../Arch/bin/libarch.a(cpu.o)
 .note.GNU-stack
                0x0000000000000000        0x0 ../Core/bin/libcore.a(interrupts.o)
 .note.GNU-stack
                0x0000000000000000        0x0 ../Core/bin/libcore.a(scheduler.o)
 .note.GNU-stack
                0x0000000000000000        0x0 ../IO/bin/libio.a(console.o)
 .note.GNU-stack
                0x0000000000000000        0x0 ../IO/bin/libio.a(kernel_output.o)
 .note.GNU-stack
                0x0000000000000000        0x0 ../Libs/bin/liblibc.a(itoa.o)
 .note.GNU-stack
                0x0000000000000000        0x0 ../Libs/bin/liblibc.a(memmove.o)
 .note.GNU-stack
                0x0000000000000000        0x0 ../Libs/bin/liblibc.a(memset.o)
 .note.GNU-stack
                0x0000000000000000        0x0 ../Libs/bin/liblibc.a(strlen.o)
 .note.GNU-stack
                0x0000000000000000        0x0 ../Libs/bin/liblibc.a(uitoa.o)
